target datalayout = "e-m:e-p270:32:32-p271:32:32-p272:64:64-i64:64-i128:128-f80:128-n8:16:32:64-S128"
target triple = "x86_64-pc-linux-gnu"

%struct.Aig_Obj_t_ = type { %union.anon, ptr, ptr, i64, i32, i32, %union.anon.0 }
%union.anon = type { ptr }
%union.anon.0 = type { ptr }
%struct.Aig_Man_t_ = type { ptr, ptr, ptr, ptr, ptr, ptr, ptr, %struct.Aig_Obj_t_, i32, i32, i32, i32, i32, i32, [7 x i32], i32, ptr, i32, ptr, i32, ptr, i32, i32, i32, ptr, i32, i32, i32, i32, i32, ptr, ptr, i32, ptr, ptr, i32, ptr, ptr, i32, i32, i32, ptr, ptr, ptr, ptr, ptr, ptr, ptr, ptr, ptr, ptr, ptr, ptr, ptr, ptr, i32, ptr, ptr, ptr, ptr, i32, i64, i64, i64, ptr, ptr }

; Function Attrs: inlinehint nounwind uwtable
define internal ptr @Aig_Regular(ptr noundef %0) #2 {
  %2 = alloca ptr, align 8
  store ptr %0, ptr %2, align 8, !tbaa !8
  %3 = load ptr, ptr %2, align 8, !tbaa !8
  %4 = ptrtoint ptr %3 to i64
  %5 = and i64 %4, -2
  %6 = inttoptr i64 %5 to ptr
  ret ptr %6
}

; Function Attrs: inlinehint nounwind uwtable
define internal i32 @Aig_ObjIsHash(ptr noundef %0) #2 {
  %2 = alloca ptr, align 8
  store ptr %0, ptr %2, align 8, !tbaa !8
  %3 = load ptr, ptr %2, align 8, !tbaa !8
  %4 = getelementptr inbounds nuw %struct.Aig_Obj_t_, ptr %3, i32 0, i32 3
  %5 = load i64, ptr %4, align 8
  %6 = and i64 %5, 7
  %7 = trunc i64 %6 to i32
  %8 = icmp eq i32 %7, 5
  br i1 %8, label %16, label %9

9:                                                ; preds = %1
  %10 = load ptr, ptr %2, align 8, !tbaa !8
  %11 = getelementptr inbounds nuw %struct.Aig_Obj_t_, ptr %10, i32 0, i32 3
  %12 = load i64, ptr %11, align 8
  %13 = and i64 %12, 7
  %14 = trunc i64 %13 to i32
  %15 = icmp eq i32 %14, 6
  br label %16

16:                                               ; preds = %9, %1
  %17 = phi i1 [ true, %1 ], [ %15, %9 ]
  %18 = zext i1 %17 to i32
  ret i32 %18
}

; Function Attrs: inlinehint nounwind uwtable
define internal ptr @Aig_ObjFanin1(ptr noundef %0) #2 {
  %2 = alloca ptr, align 8
  store ptr %0, ptr %2, align 8, !tbaa !8
  %3 = load ptr, ptr %2, align 8, !tbaa !8
  %4 = getelementptr inbounds nuw %struct.Aig_Obj_t_, ptr %3, i32 0, i32 2
  %5 = load ptr, ptr %4, align 8, !tbaa !35
  %6 = call ptr @Aig_Regular(ptr noundef %5)
  ret ptr %6
}

; Function Attrs: inlinehint nounwind uwtable
define internal void @Aig_ObjDeref(ptr noundef %0) #2 {
  %2 = alloca ptr, align 8
  store ptr %0, ptr %2, align 8, !tbaa !8
  %3 = load ptr, ptr %2, align 8, !tbaa !8
  %4 = getelementptr inbounds nuw %struct.Aig_Obj_t_, ptr %3, i32 0, i32 3
  %5 = load i64, ptr %4, align 8
  %6 = lshr i64 %5, 6
  %7 = and i64 %6, 67108863
  %8 = trunc i64 %7 to i32
  %9 = add i32 %8, -1
  %10 = zext i32 %9 to i64
  %11 = load i64, ptr %4, align 8
  %12 = and i64 %10, 67108863
  %13 = shl i64 %12, 6
  %14 = and i64 %11, -4294967233
  %15 = or i64 %14, %13
  store i64 %15, ptr %4, align 8
  ret void
}

; Function Attrs: inlinehint nounwind uwtable
define internal ptr @Aig_ObjFanin0(ptr noundef %0) #2 {
  %2 = alloca ptr, align 8
  store ptr %0, ptr %2, align 8, !tbaa !8
  %3 = load ptr, ptr %2, align 8, !tbaa !8
  %4 = getelementptr inbounds nuw %struct.Aig_Obj_t_, ptr %3, i32 0, i32 1
  %5 = load ptr, ptr %4, align 8, !tbaa !34
  %6 = call ptr @Aig_Regular(ptr noundef %5)
  ret ptr %6
}

; Function Attrs: nounwind uwtable
define void @Aig_ObjDisconnect(ptr noundef %0, ptr noundef %1) #0 {
  %3 = alloca ptr, align 8
  %4 = alloca ptr, align 8
  store ptr %0, ptr %3, align 8, !tbaa !3
  store ptr %1, ptr %4, align 8, !tbaa !8
  %5 = load ptr, ptr %4, align 8, !tbaa !8
  %6 = getelementptr inbounds nuw %struct.Aig_Obj_t_, ptr %5, i32 0, i32 1
  %7 = load ptr, ptr %6, align 8, !tbaa !34
  %8 = icmp ne ptr %7, null
  br i1 %8, label %9, label %22

9:                                                ; preds = %2
  %10 = load ptr, ptr %3, align 8, !tbaa !3
  %11 = getelementptr inbounds nuw %struct.Aig_Man_t_, ptr %10, i32 0, i32 18
  %12 = load ptr, ptr %11, align 8, !tbaa !36
  %13 = icmp ne ptr %12, null
  br i1 %13, label %14, label %19

14:                                               ; preds = %9
  %15 = load ptr, ptr %3, align 8, !tbaa !3
  %16 = load ptr, ptr %4, align 8, !tbaa !8
  %17 = call ptr @Aig_ObjFanin0(ptr noundef %16)
  %18 = load ptr, ptr %4, align 8, !tbaa !8
  call void @Aig_ObjRemoveFanout(ptr noundef %15, ptr noundef %17, ptr noundef %18)
  br label %19

19:                                               ; preds = %14, %9
  %20 = load ptr, ptr %4, align 8, !tbaa !8
  %21 = call ptr @Aig_ObjFanin0(ptr noundef %20)
  call void @Aig_ObjDeref(ptr noundef %21)
  br label %22

22:                                               ; preds = %19, %2
  %23 = load ptr, ptr %4, align 8, !tbaa !8
  %24 = getelementptr inbounds nuw %struct.Aig_Obj_t_, ptr %23, i32 0, i32 2
  %25 = load ptr, ptr %24, align 8, !tbaa !35
  %26 = icmp ne ptr %25, null
  br i1 %26, label %27, label %40

27:                                               ; preds = %22
  %28 = load ptr, ptr %3, align 8, !tbaa !3
  %29 = getelementptr inbounds nuw %struct.Aig_Man_t_, ptr %28, i32 0, i32 18
  %30 = load ptr, ptr %29, align 8, !tbaa !36
  %31 = icmp ne ptr %30, null
  br i1 %31, label %32, label %37

32:                                               ; preds = %27
  %33 = load ptr, ptr %3, align 8, !tbaa !3
  %34 = load ptr, ptr %4, align 8, !tbaa !8
  %35 = call ptr @Aig_ObjFanin1(ptr noundef %34)
  %36 = load ptr, ptr %4, align 8, !tbaa !8
  call void @Aig_ObjRemoveFanout(ptr noundef %33, ptr noundef %35, ptr noundef %36)
  br label %37

37:                                               ; preds = %32, %27
  %38 = load ptr, ptr %4, align 8, !tbaa !8
  %39 = call ptr @Aig_ObjFanin1(ptr noundef %38)
  call void @Aig_ObjDeref(ptr noundef %39)
  br label %40

40:                                               ; preds = %37, %22
  %41 = load ptr, ptr %3, align 8, !tbaa !3
  %42 = getelementptr inbounds nuw %struct.Aig_Man_t_, ptr %41, i32 0, i32 16
  %43 = load ptr, ptr %42, align 8, !tbaa !37
  %44 = icmp ne ptr %43, null
  br i1 %44, label %45, label %52

45:                                               ; preds = %40
  %46 = load ptr, ptr %4, align 8, !tbaa !8
  %47 = call i32 @Aig_ObjIsHash(ptr noundef %46)
  %48 = icmp ne i32 %47, 0
  br i1 %48, label %49, label %52

49:                                               ; preds = %45
  %50 = load ptr, ptr %3, align 8, !tbaa !3
  %51 = load ptr, ptr %4, align 8, !tbaa !8
  call void @Aig_TableDelete(ptr noundef %50, ptr noundef %51)
  br label %52

52:                                               ; preds = %49, %45, %40
  %53 = load ptr, ptr %4, align 8, !tbaa !8
  %54 = getelementptr inbounds nuw %struct.Aig_Obj_t_, ptr %53, i32 0, i32 1
  store ptr null, ptr %54, align 8, !tbaa !34
  %55 = load ptr, ptr %4, align 8, !tbaa !8
  %56 = getelementptr inbounds nuw %struct.Aig_Obj_t_, ptr %55, i32 0, i32 2
  store ptr null, ptr %56, align 8, !tbaa !35
  ret void
}