; Function Attrs: nounwind uwtable
define void @Aig_ObjDisconnect(ptr noundef %0, ptr noundef %1) local_unnamed_addr #0 {
  %3 = getelementptr inbounds nuw i8, ptr %1, i64 8
  %4 = load ptr, ptr %3, align 8, !tbaa !31
  %.not = icmp eq ptr %4, null
  br i1 %.not, label %22, label %5

5:                                                ; preds = %2
  %6 = getelementptr inbounds nuw i8, ptr %0, i64 176
  %7 = load ptr, ptr %6, align 8, !tbaa !33
  %.not18 = icmp eq ptr %7, null
  br i1 %.not18, label %12, label %8

8:                                                ; preds = %5
  %9 = ptrtoint ptr %4 to i64
  %10 = and i64 %9, -2
  %11 = inttoptr i64 %10 to ptr
  tail call void @Aig_ObjRemoveFanout(ptr noundef nonnull %0, ptr noundef %11, ptr noundef nonnull %1) #11
  %.val.pre = load ptr, ptr %3, align 8, !tbaa !31
  br label %12

12:                                               ; preds = %8, %5
  %.val = phi ptr [ %.val.pre, %8 ], [ %4, %5 ]
  %13 = ptrtoint ptr %.val to i64
  %14 = and i64 %13, -2
  %15 = inttoptr i64 %14 to ptr
  %16 = getelementptr inbounds nuw i8, ptr %15, i64 24
  %17 = load i64, ptr %16, align 8
  %18 = add i64 %17, 4294967232
  %19 = and i64 %18, 4294967232
  %20 = and i64 %17, -4294967233
  %21 = or disjoint i64 %19, %20
  store i64 %21, ptr %16, align 8
  br label %22

22:                                               ; preds = %12, %2
  %23 = getelementptr inbounds nuw i8, ptr %1, i64 16
  %24 = load ptr, ptr %23, align 8, !tbaa !32
  %.not19 = icmp eq ptr %24, null
  br i1 %.not19, label %42, label %25

25:                                               ; preds = %22
  %26 = getelementptr inbounds nuw i8, ptr %0, i64 176
  %27 = load ptr, ptr %26, align 8, !tbaa !33
  %.not20 = icmp eq ptr %27, null
  br i1 %.not20, label %32, label %28

28:                                               ; preds = %25
  %29 = ptrtoint ptr %24 to i64
  %30 = and i64 %29, -2
  %31 = inttoptr i64 %30 to ptr
  tail call void @Aig_ObjRemoveFanout(ptr noundef nonnull %0, ptr noundef %31, ptr noundef nonnull %1) #11
  %.val24.pre = load ptr, ptr %23, align 8, !tbaa !32
  br label %32

32:                                               ; preds = %28, %25
  %.val24 = phi ptr [ %.val24.pre, %28 ], [ %24, %25 ]
  %33 = ptrtoint ptr %.val24 to i64
  %34 = and i64 %33, -2
  %35 = inttoptr i64 %34 to ptr
  %36 = getelementptr inbounds nuw i8, ptr %35, i64 24
  %37 = load i64, ptr %36, align 8
  %38 = add i64 %37, 4294967232
  %39 = and i64 %38, 4294967232
  %40 = and i64 %37, -4294967233
  %41 = or disjoint i64 %39, %40
  store i64 %41, ptr %36, align 8
  br label %42

42:                                               ; preds = %32, %22
  %43 = getelementptr inbounds nuw i8, ptr %0, i64 160
  %44 = load ptr, ptr %43, align 8, !tbaa !34
  %.not21 = icmp eq ptr %44, null
  br i1 %.not21, label %51, label %45

45:                                               ; preds = %42
  %46 = getelementptr i8, ptr %1, i64 24
  %.val26 = load i64, ptr %46, align 8
  %47 = trunc i64 %.val26 to i32
  %48 = and i32 %47, 7
  %49 = add nsw i32 %48, -7
  %narrow.i = icmp ult i32 %49, -2
  br i1 %narrow.i, label %51, label %50

50:                                               ; preds = %45
  tail call void @Aig_TableDelete(ptr noundef nonnull %0, ptr noundef nonnull %1) #11
  br label %51

51:                                               ; preds = %50, %45, %42
  tail call void @llvm.memset.p0.i64(ptr noundef nonnull align 8 dereferenceable(16) %3, i8 0, i64 16, i1 false)
  ret void
}